(dp1
S'NC_011833'
p2
(dp3
S'seq_type'
p4
S'complete_genome'
p5
sS'taxonomy'
p6
(lp7
S'Bacteria'
p8
aS'Proteobacteria'
p9
aS'Gammaproteobacteria'
p10
aS'Enterobacteriales'
p11
aS'Enterobacteriaceae'
p12
aS'Buchnera'
p13
asS'source_folder'
p14
S'Buchnera_aphidicola_5A__Acyrthosiphon_pisum__uid59285'
p15
sS'seq_name'
p16
g5
sS'organism'
p17
S'Buchnera_aphidicola_str._5A_(Acyrthosiphon_pisum)'
p18
sS'file_path'
p19
S'/home/dave/Desktop/all_genbank/Buchnera_aphidicola_5A__Acyrthosiphon_pisum__uid59285/NC_011833.gbk'
p20
ssS'NC_002696'
p21
(dp22
S'seq_type'
p23
S'complete_genome'
p24
sS'taxonomy'
p25
(lp26
S'Bacteria'
p27
aS'Proteobacteria'
p28
aS'Alphaproteobacteria'
p29
aS'Caulobacterales'
p30
aS'Caulobacteraceae'
p31
aS'Caulobacter'
p32
asS'source_folder'
p33
S'Caulobacter_crescentus_CB15_uid57891'
p34
sS'seq_name'
p35
g24
sS'organism'
p36
S'Caulobacter_crescentus_CB15'
p37
sS'file_path'
p38
S'/home/dave/Desktop/all_genbank/Caulobacter_crescentus_CB15_uid57891/NC_002696.gbk'
p39
ssS'NC_002516'
p40
(dp41
S'seq_type'
p42
S'complete_genome'
p43
sS'taxonomy'
p44
(lp45
S'Bacteria'
p46
aS'Proteobacteria'
p47
aS'Gammaproteobacteria'
p48
aS'Pseudomonadales'
p49
aS'Pseudomonadaceae'
p50
aS'Pseudomonas'
p51
asS'source_folder'
p52
S'Pseudomonas_aeruginosa_PAO1_uid57945'
p53
sS'seq_name'
p54
g43
sS'organism'
p55
S'Pseudomonas_aeruginosa_PAO1'
p56
sS'file_path'
p57
S'/home/dave/Desktop/all_genbank/Pseudomonas_aeruginosa_PAO1_uid57945/NC_002516.gbk'
p58
ssS'NC_000913'
p59
(dp60
S'seq_type'
p61
S'complete_genome'
p62
sS'taxonomy'
p63
(lp64
S'Bacteria'
p65
aS'Proteobacteria'
p66
aS'Gammaproteobacteria'
p67
aS'Enterobacteriales'
p68
aS'Enterobacteriaceae'
p69
aS'Escherichia'
p70
asS'source_folder'
p71
S'Escherichia_coli_K_12_substr__MG1655_uid57779'
p72
sS'seq_name'
p73
g62
sS'organism'
p74
S'Escherichia_coli_str._K-12_substr._MG1655'
p75
sS'file_path'
p76
S'/home/dave/Desktop/all_genbank/Escherichia_coli_K_12_substr__MG1655_uid57779/NC_000913.gbk'
p77
ssS'NC_012441'
p78
(dp79
S'seq_type'
p80
S'chromosome'
p81
sS'taxonomy'
p82
(lp83
S'Bacteria'
p84
aS'Proteobacteria'
p85
aS'Alphaproteobacteria'
p86
aS'Rhizobiales'
p87
aS'Brucellaceae'
p88
aS'Brucella'
p89
asS'source_folder'
p90
S'Brucella_melitensis_ATCC_23457_uid59241'
p91
sS'seq_name'
p92
S'chromosomeI'
p93
sS'organism'
p94
S'Brucella_melitensis_ATCC_23457'
p95
sS'file_path'
p96
S'/home/dave/Desktop/all_genbank/Brucella_melitensis_ATCC_23457_uid59241/NC_012441.gbk'
p97
ssS'NC_004757'
p98
(dp99
S'seq_type'
p100
S'complete_genome'
p101
sS'taxonomy'
p102
(lp103
S'Bacteria'
p104
aS'Proteobacteria'
p105
aS'Betaproteobacteria'
p106
aS'Nitrosomonadales'
p107
aS'Nitrosomonadaceae'
p108
aS'Nitrosomonas'
p109
asS'source_folder'
p110
S'Nitrosomonas_europaea_ATCC_19718_uid57647'
p111
sS'seq_name'
p112
g101
sS'organism'
p113
S'Nitrosomonas_europaea_ATCC_19718'
p114
sS'file_path'
p115
S'/home/dave/Desktop/all_genbank/Nitrosomonas_europaea_ATCC_19718_uid57647/NC_004757.gbk'
p116
ssS'NC_005085'
p117
(dp118
S'seq_type'
p119
S'complete_genome'
p120
sS'taxonomy'
p121
(lp122
S'Bacteria'
p123
aS'Proteobacteria'
p124
aS'Betaproteobacteria'
p125
aS'Neisseriales'
p126
aS'Neisseriaceae'
p127
aS'Chromobacterium'
p128
asS'source_folder'
p129
S'Chromobacterium_violaceum_ATCC_12472_uid58001'
p130
sS'seq_name'
p131
g120
sS'organism'
p132
S'Chromobacterium_violaceum_ATCC_12472'
p133
sS'file_path'
p134
S'/home/dave/Desktop/all_genbank/Chromobacterium_violaceum_ATCC_12472_uid58001/NC_005085.gbk'
p135
ssS'NC_002678'
p136
(dp137
g80
S'complete_genome'
p138
sg82
(lp139
S'Bacteria'
p140
aS'Proteobacteria'
p141
aS'Alphaproteobacteria'
p142
aS'Rhizobiales'
p143
aS'Phyllobacteriaceae'
p144
aS'Mesorhizobium'
p145
asg90
S'Mesorhizobium_loti_MAFF303099_uid57601'
p146
sg92
g138
sg94
S'Mesorhizobium_loti_MAFF303099'
p147
sg96
S'/home/dave/Desktop/all_genbank/Mesorhizobium_loti_MAFF303099_uid57601/NC_002678.gbk'
p148
ssS'NC_003143'
p149
(dp150
g61
g62
sg63
(lp151
S'Bacteria'
p152
aS'Proteobacteria'
p153
aS'Gammaproteobacteria'
p154
aS'Enterobacteriales'
p155
aS'Enterobacteriaceae'
p156
aS'Yersinia'
p157
asg71
S'Yersinia_pestis_CO92_uid57621'
p158
sg73
g62
sg74
S'Yersinia_pestis_CO92'
p159
sg76
S'/home/dave/Desktop/all_genbank/Yersinia_pestis_CO92_uid57621/NC_003143.gbk'
p160
ssS'NC_003062'
p161
(dp162
S'seq_type'
p163
S'chromosome'
p164
sS'taxonomy'
p165
(lp166
S'Bacteria'
p167
aS'Proteobacteria'
p168
aS'Alphaproteobacteria'
p169
aS'Rhizobiales'
p170
aS'Rhizobiaceae'
p171
aS'Rhizobium/Agrobacterium group'
p172
aS'Agrobacterium'
p173
aS'Agrobacterium tumefaciens complex'
p174
asS'source_folder'
p175
S'Agrobacterium_tumefaciens_C58_uid57865'
p176
sS'seq_name'
p177
S'chromosomecircular'
p178
sS'organism'
p179
S'Agrobacterium_fabrum_str._C58'
p180
sS'file_path'
p181
S'/home/dave/Desktop/all_genbank/Agrobacterium_tumefaciens_C58_uid57865/NC_003062.gbk'
p182
ssS'NC_005061'
p183
(dp184
S'seq_type'
p185
S'complete_genome'
p186
sS'taxonomy'
p187
(lp188
S'Bacteria'
p189
aS'Proteobacteria'
p190
aS'Gammaproteobacteria'
p191
aS'Enterobacteriales'
p192
aS'Enterobacteriaceae'
p193
aS'ant endosymbionts'
p194
aS'Candidatus Blochmannia'
p195
asS'source_folder'
p196
S'Candidatus_Blochmannia_floridanus_uid57999'
p197
sS'seq_name'
p198
g186
sS'organism'
p199
S'Candidatus_Blochmannia_floridanus'
p200
sS'file_path'
p201
S'/home/dave/Desktop/all_genbank/Candidatus_Blochmannia_floridanus_uid57999/NC_005061.gbk'
p202
ssS'NC_007086'
p203
(dp204
S'seq_type'
p205
S'complete_genome'
p206
sS'taxonomy'
p207
(lp208
S'Bacteria'
p209
aS'Proteobacteria'
p210
aS'Gammaproteobacteria'
p211
aS'Xanthomonadales'
p212
aS'Xanthomonadaceae'
p213
aS'Xanthomonas'
p214
asS'source_folder'
p215
S'Xanthomonas_campestris_8004_uid57595'
p216
sS'seq_name'
p217
g206
sS'organism'
p218
S'Xanthomonas_campestris_pv._campestris_str._8004'
p219
sS'file_path'
p220
S'/home/dave/Desktop/all_genbank/Xanthomonas_campestris_8004_uid57595/NC_007086.gbk'
p221
ssS'NC_002488'
p222
(dp223
S'seq_type'
p224
S'complete_genome'
p225
sS'taxonomy'
p226
(lp227
S'Bacteria'
p228
aS'Proteobacteria'
p229
aS'Gammaproteobacteria'
p230
aS'Xanthomonadales'
p231
aS'Xanthomonadaceae'
p232
aS'Xylella'
p233
asS'source_folder'
p234
S'Xylella_fastidiosa_9a5c_uid57849'
p235
sS'seq_name'
p236
g225
sS'organism'
p237
S'Xylella_fastidiosa_9a5c'
p238
sS'file_path'
p239
S'/home/dave/Desktop/all_genbank/Xylella_fastidiosa_9a5c_uid57849/NC_002488.gbk'
p240
ssS'NC_004578'
p241
(dp242
S'seq_type'
p243
S'complete_genome'
p244
sS'taxonomy'
p245
(lp246
S'Bacteria'
p247
aS'Proteobacteria'
p248
aS'Gammaproteobacteria'
p249
aS'Pseudomonadales'
p250
aS'Pseudomonadaceae'
p251
aS'Pseudomonas'
p252
asS'source_folder'
p253
S'Pseudomonas_syringae_tomato_DC3000_uid57967'
p254
sS'seq_name'
p255
g244
sS'organism'
p256
S'Pseudomonas_syringae_pv._tomato_str._DC3000'
p257
sS'file_path'
p258
S'/home/dave/Desktop/all_genbank/Pseudomonas_syringae_tomato_DC3000_uid57967/NC_004578.gbk'
p259
ssS'NC_004459'
p260
(dp261
S'seq_type'
p262
S'chromosome'
p263
sS'taxonomy'
p264
(lp265
S'Bacteria'
p266
aS'Proteobacteria'
p267
aS'Gammaproteobacteria'
p268
aS'Vibrionales'
p269
aS'Vibrionaceae'
p270
aS'Vibrio'
p271
asS'source_folder'
p272
S'Vibrio_vulnificus_CMCP6_uid62909'
p273
sS'seq_name'
p274
S'chromosomeI'
p275
sS'organism'
p276
S'Vibrio_vulnificus_CMCP6'
p277
sS'file_path'
p278
S'/home/dave/Desktop/all_genbank/Vibrio_vulnificus_CMCP6_uid62909/NC_004459.gbk'
p279
ssS'NC_004310'
p280
(dp281
g119
S'chromosome'
p282
sg121
(lp283
S'Bacteria'
p284
aS'Proteobacteria'
p285
aS'Alphaproteobacteria'
p286
aS'Rhizobiales'
p287
aS'Brucellaceae'
p288
aS'Brucella'
p289
asg129
S'Brucella_suis_1330_uid57927'
p290
sg131
S'chromosomeI'
p291
sg132
S'Brucella_suis_1330'
p292
sg134
S'/home/dave/Desktop/all_genbank/Brucella_suis_1330_uid57927/NC_004310.gbk'
p293
ssS'NC_002928'
p294
(dp295
S'seq_type'
p296
S'complete_genome'
p297
sS'taxonomy'
p298
(lp299
S'Bacteria'
p300
aS'Proteobacteria'
p301
aS'Betaproteobacteria'
p302
aS'Burkholderiales'
p303
aS'Alcaligenaceae'
p304
aS'Bordetella'
p305
asS'source_folder'
p306
S'Bordetella_parapertussis_12822_uid57615'
p307
sS'seq_name'
p308
g297
sS'organism'
p309
S'Bordetella_parapertussis_12822'
p310
sS'file_path'
p311
S'/home/dave/Desktop/all_genbank/Bordetella_parapertussis_12822_uid57615/NC_002928.gbk'
p312
ssS'NC_003198'
p313
(dp314
S'seq_type'
p315
S'complete_genome'
p316
sS'taxonomy'
p317
(lp318
S'Bacteria'
p319
aS'Proteobacteria'
p320
aS'Gammaproteobacteria'
p321
aS'Enterobacteriales'
p322
aS'Enterobacteriaceae'
p323
aS'Salmonella'
p324
asS'source_folder'
p325
S'Salmonella_enterica_serovar_Typhi_CT18_uid57793'
p326
sS'seq_name'
p327
g316
sS'organism'
p328
S'Salmonella_enterica_subsp._enterica_serovar_Typhi_str._CT18'
p329
sS'file_path'
p330
S'/home/dave/Desktop/all_genbank/Salmonella_enterica_serovar_Typhi_CT18_uid57793/NC_003198.gbk'
p331
ssS'NC_005090'
p332
(dp333
S'seq_type'
p334
S'complete_genome'
p335
sS'taxonomy'
p336
(lp337
S'Bacteria'
p338
aS'Proteobacteria'
p339
aS'Epsilonproteobacteria'
p340
aS'Campylobacterales'
p341
aS'Helicobacteraceae'
p342
aS'Wolinella'
p343
asS'source_folder'
p344
S'Wolinella_succinogenes_DSM_1740_uid61591'
p345
sS'seq_name'
p346
g335
sS'organism'
p347
S'Wolinella_succinogenes_DSM_1740'
p348
sS'file_path'
p349
S'/home/dave/Desktop/all_genbank/Wolinella_succinogenes_DSM_1740_uid61591/NC_005090.gbk'
p350
ssS'NC_003197'
p351
(dp352
g315
g316
sg317
(lp353
S'Bacteria'
p354
aS'Proteobacteria'
p355
aS'Gammaproteobacteria'
p356
aS'Enterobacteriales'
p357
aS'Enterobacteriaceae'
p358
aS'Salmonella'
p359
asg325
S'Salmonella_enterica_serovar_Typhimurium_LT2_uid57799'
p360
sg327
g316
sg328
S'Salmonella_enterica_subsp._enterica_serovar_Typhimurium_str._LT2'
p361
sg330
S'/home/dave/Desktop/all_genbank/Salmonella_enterica_serovar_Typhimurium_LT2_uid57799/NC_003197.gbk'
p362
ssS'NC_004917'
p363
(dp364
S'seq_type'
p365
S'complete_genome'
p366
sS'taxonomy'
p367
(lp368
S'Bacteria'
p369
aS'Proteobacteria'
p370
aS'Epsilonproteobacteria'
p371
aS'Campylobacterales'
p372
aS'Helicobacteraceae'
p373
aS'Helicobacter'
p374
asS'source_folder'
p375
S'Helicobacter_hepaticus_ATCC_51449_uid57737'
p376
sS'seq_name'
p377
g366
sS'organism'
p378
S'Helicobacter_hepaticus_ATCC_51449'
p379
sS'file_path'
p380
S'/home/dave/Desktop/all_genbank/Helicobacter_hepaticus_ATCC_51449_uid57737/NC_004917.gbk'
p381
ssS'NC_004603'
p382
(dp383
g163
g164
sg165
(lp384
S'Bacteria'
p385
aS'Proteobacteria'
p386
aS'Gammaproteobacteria'
p387
aS'Vibrionales'
p388
aS'Vibrionaceae'
p389
aS'Vibrio'
p390
asg175
S'Vibrio_parahaemolyticus_RIMD_2210633_uid57969'
p391
sg177
S'chromosome1'
p392
sg179
S'Vibrio_parahaemolyticus_RIMD_2210633'
p393
sg181
S'/home/dave/Desktop/all_genbank/Vibrio_parahaemolyticus_RIMD_2210633_uid57969/NC_004603.gbk'
p394
ssS'NC_000907'
p395
(dp396
g4
g5
sg6
(lp397
S'Bacteria'
p398
aS'Proteobacteria'
p399
aS'Gammaproteobacteria'
p400
aS'Pasteurellales'
p401
aS'Pasteurellaceae'
p402
aS'Haemophilus'
p403
asg14
S'Haemophilus_influenzae_Rd_KW20_uid57771'
p404
sg16
g5
sg17
S'Haemophilus_influenzae_Rd_KW20'
p405
sg19
S'/home/dave/Desktop/all_genbank/Haemophilus_influenzae_Rd_KW20_uid57771/NC_000907.gbk'
p406
ssS'NC_002163'
p407
(dp408
S'seq_type'
p409
S'complete_genome'
p410
sS'taxonomy'
p411
(lp412
S'Bacteria'
p413
aS'Proteobacteria'
p414
aS'Epsilonproteobacteria'
p415
aS'Campylobacterales'
p416
aS'Campylobacteraceae'
p417
aS'Campylobacter'
p418
asS'source_folder'
p419
S'Campylobacter_jejuni_NCTC_11168___ATCC_700819_uid57587'
p420
sS'seq_name'
p421
g410
sS'organism'
p422
S'Campylobacter_jejuni_subsp._jejuni_NCTC_11168_=_ATCC_700819'
p423
sS'file_path'
p424
S'/home/dave/Desktop/all_genbank/Campylobacter_jejuni_NCTC_11168___ATCC_700819_uid57587/NC_002163.gbk'
p425
ssS'NC_003295'
p426
(dp427
g365
g366
sg367
(lp428
S'Bacteria'
p429
aS'Proteobacteria'
p430
aS'Betaproteobacteria'
p431
aS'Burkholderiales'
p432
aS'Burkholderiaceae'
p433
aS'Ralstonia'
p434
asg375
S'Ralstonia_solanacearum_GMI1000_uid57593'
p435
sg377
g366
sg378
S'Ralstonia_solanacearum_GMI1000'
p436
sg380
S'/home/dave/Desktop/all_genbank/Ralstonia_solanacearum_GMI1000_uid57593/NC_003295.gbk'
p437
ssS'NC_002929'
p438
(dp439
g205
g206
sg207
(lp440
S'Bacteria'
p441
aS'Proteobacteria'
p442
aS'Betaproteobacteria'
p443
aS'Burkholderiales'
p444
aS'Alcaligenaceae'
p445
aS'Bordetella'
p446
asg215
S'Bordetella_pertussis_Tohama_I_uid57617'
p447
sg217
g206
sg218
S'Bordetella_pertussis_Tohama_I'
p448
sg220
S'/home/dave/Desktop/all_genbank/Bordetella_pertussis_Tohama_I_uid57617/NC_002929.gbk'
p449
ssS'NC_004741'
p450
(dp451
g224
g225
sg226
(lp452
S'Bacteria'
p453
aS'Proteobacteria'
p454
aS'Gammaproteobacteria'
p455
aS'Enterobacteriales'
p456
aS'Enterobacteriaceae'
p457
aS'Shigella'
p458
asg234
S'Shigella_flexneri_2a_2457T_uid57991'
p459
sg236
g225
sg237
S'Shigella_flexneri_2a_str._2457T'
p460
sg239
S'/home/dave/Desktop/all_genbank/Shigella_flexneri_2a_2457T_uid57991/NC_004741.gbk'
p461
ssS'NC_003112'
p462
(dp463
g262
S'complete_genome'
p464
sg264
(lp465
S'Bacteria'
p466
aS'Proteobacteria'
p467
aS'Betaproteobacteria'
p468
aS'Neisseriales'
p469
aS'Neisseriaceae'
p470
aS'Neisseria'
p471
asg272
S'Neisseria_meningitidis_MC58_uid57817'
p472
sg274
g464
sg276
S'Neisseria_meningitidis_MC58'
p473
sg278
S'/home/dave/Desktop/all_genbank/Neisseria_meningitidis_MC58_uid57817/NC_003112.gbk'
p474
ssS'NC_003919'
p475
(dp476
g409
g410
sg411
(lp477
S'Bacteria'
p478
aS'Proteobacteria'
p479
aS'Gammaproteobacteria'
p480
aS'Xanthomonadales'
p481
aS'Xanthomonadaceae'
p482
aS'Xanthomonas'
p483
asg419
S'Xanthomonas_axonopodis_citri_306_uid57889'
p484
sg421
g410
sg422
S'Xanthomonas_axonopodis_pv._citri_str._306'
p485
sg424
S'/home/dave/Desktop/all_genbank/Xanthomonas_axonopodis_citri_306_uid57889/NC_003919.gbk'
p486
ssS'NC_002947'
p487
(dp488
g100
g101
sg102
(lp489
S'Bacteria'
p490
aS'Proteobacteria'
p491
aS'Gammaproteobacteria'
p492
aS'Pseudomonadales'
p493
aS'Pseudomonadaceae'
p494
aS'Pseudomonas'
p495
asg110
S'Pseudomonas_putida_KT2440_uid57843'
p496
sg112
g101
sg113
S'Pseudomonas_putida_KT2440'
p497
sg115
S'/home/dave/Desktop/all_genbank/Pseudomonas_putida_KT2440_uid57843/NC_002947.gbk'
p498
ssS'NC_003047'
p499
(dp500
g334
g335
sg336
(lp501
S'Bacteria'
p502
aS'Proteobacteria'
p503
aS'Alphaproteobacteria'
p504
aS'Rhizobiales'
p505
aS'Rhizobiaceae'
p506
aS'Sinorhizobium/Ensifer group'
p507
aS'Sinorhizobium'
p508
asg344
S'Sinorhizobium_meliloti_1021_uid57603'
p509
sg346
g335
sg347
S'Sinorhizobium_meliloti_1021'
p510
sg349
S'/home/dave/Desktop/all_genbank/Sinorhizobium_meliloti_1021_uid57603/NC_003047.gbk'
p511
ssS'NC_002663'
p512
(dp513
g185
g186
sg187
(lp514
S'Bacteria'
p515
aS'Proteobacteria'
p516
aS'Gammaproteobacteria'
p517
aS'Pasteurellales'
p518
aS'Pasteurellaceae'
p519
aS'Pasteurella'
p520
asg196
S'Pasteurella_multocida_Pm70_uid57627'
p521
sg198
g186
sg199
S'Pasteurella_multocida_subsp._multocida_str._Pm70'
p522
sg201
S'/home/dave/Desktop/all_genbank/Pasteurella_multocida_Pm70_uid57627/NC_002663.gbk'
p523
ssS'NC_002927'
p524
(dp525
g42
g43
sg44
(lp526
S'Bacteria'
p527
aS'Proteobacteria'
p528
aS'Betaproteobacteria'
p529
aS'Burkholderiales'
p530
aS'Alcaligenaceae'
p531
aS'Bordetella'
p532
asg52
S'Bordetella_bronchiseptica_RB50_uid57613'
p533
sg54
g43
sg55
S'Bordetella_bronchiseptica_RB50'
p534
sg57
S'/home/dave/Desktop/all_genbank/Bordetella_bronchiseptica_RB50_uid57613/NC_002927.gbk'
p535
ssS'NC_004347'
p536
(dp537
g243
g244
sg245
(lp538
S'Bacteria'
p539
aS'Proteobacteria'
p540
aS'Gammaproteobacteria'
p541
aS'Alteromonadales'
p542
aS'Shewanellaceae'
p543
aS'Shewanella'
p544
asg253
S'Shewanella_oneidensis_MR_1_uid57949'
p545
sg255
g244
sg256
S'Shewanella_oneidensis_MR-1'
p546
sg258
S'/home/dave/Desktop/all_genbank/Shewanella_oneidensis_MR_1_uid57949/NC_004347.gbk'
p547
ssS'NC_004463'
p548
(dp549
g23
g24
sg25
(lp550
S'Bacteria'
p551
aS'Proteobacteria'
p552
aS'Alphaproteobacteria'
p553
aS'Rhizobiales'
p554
aS'Bradyrhizobiaceae'
p555
aS'Bradyrhizobium'
p556
asg33
S'Bradyrhizobium_japonicum_USDA_110_uid57599'
p557
sg35
g24
sg36
S'Bradyrhizobium_japonicum_USDA_110'
p558
sg38
S'/home/dave/Desktop/all_genbank/Bradyrhizobium_japonicum_USDA_110_uid57599/NC_004463.gbk'
p559
ss.